target datalayout = "e-m:e-p270:32:32-p271:32:32-p272:64:64-i64:64-i128:128-f80:128-n8:16:32:64-S128"
target triple = "x86_64-pc-linux-gnu"

@SDL_MainThreadID = internal global i64 0, align 8

; Function Attrs: nounwind uwtable
define hidden zeroext i1 @SDL_IsMainThread_REAL() #2 {
  %1 = alloca i1, align 1
  %2 = load i64, ptr @SDL_MainThreadID, align 8
  %3 = icmp eq i64 %2, 0
  br i1 %3, label %4, label %5

4:                                                ; preds = %0
  store i1 true, ptr %1, align 1
  br label %11

5:                                                ; preds = %0
  %6 = load i64, ptr @SDL_MainThreadID, align 8
  %7 = call i64 @SDL_GetCurrentThreadID_REAL()
  %8 = icmp eq i64 %6, %7
  br i1 %8, label %9, label %10

9:                                                ; preds = %5
  store i1 true, ptr %1, align 1
  br label %11

10:                                               ; preds = %5
  store i1 false, ptr %1, align 1
  br label %11

11:                                               ; preds = %10, %9, %4
  %12 = load i1, ptr %1, align 1
  ret i1 %12
}