; Function Attrs: nounwind uwtable
define hidden zeroext i1 @SDL_IsMainThread_REAL() local_unnamed_addr #2 {
  %1 = load i64, ptr @SDL_MainThreadID, align 8
  %2 = icmp eq i64 %1, 0
  br i1 %2, label %6, label %3

3:                                                ; preds = %0
  %4 = tail call i64 @SDL_GetCurrentThreadID_REAL() #11
  %5 = icmp eq i64 %1, %4
  br label %6

6:                                                ; preds = %3, %0
  %.0 = phi i1 [ true, %0 ], [ %5, %3 ]
  ret i1 %.0
}